target datalayout = "e-m:e-p270:32:32-p271:32:32-p272:64:64-i64:64-i128:128-f80:128-n8:16:32:64-S128"
target triple = "x86_64-pc-linux-gnu"

%struct.ident_t = type { i32, i32, i32, i32, ptr }
%"class.ncnn::RMSNorm" = type { %"class.ncnn::Layer", i32, float, i32, %"class.ncnn::Mat" }
%"class.ncnn::Layer" = type { ptr, i8, i8, i8, i8, i8, i8, i8, i8, i8, i8, i8, i8, i8, i8, i8, i8, i8, i8, i8, i8, i32, ptr, i32, %"class.std::__cxx11::basic_string", %"class.std::__cxx11::basic_string", %"class.std::vector", %"class.std::vector", %"class.std::vector.3", %"class.std::vector.3" }
%"class.std::__cxx11::basic_string" = type { %"struct.std::__cxx11::basic_string<char>::_Alloc_hider", i64, %union.anon }
%"struct.std::__cxx11::basic_string<char>::_Alloc_hider" = type { ptr }
%union.anon = type { i64, [8 x i8] }
%"class.std::vector" = type { %"struct.std::_Vector_base" }
%"struct.std::_Vector_base" = type { %"struct.std::_Vector_base<int, std::allocator<int>>::_Vector_impl" }
%"struct.std::_Vector_base<int, std::allocator<int>>::_Vector_impl" = type { %"struct.std::_Vector_base<int, std::allocator<int>>::_Vector_impl_data" }
%"struct.std::_Vector_base<int, std::allocator<int>>::_Vector_impl_data" = type { ptr, ptr, ptr }
%"class.std::vector.3" = type { %"struct.std::_Vector_base.4" }
%"struct.std::_Vector_base.4" = type { %"struct.std::_Vector_base<ncnn::Mat, std::allocator<ncnn::Mat>>::_Vector_impl" }
%"struct.std::_Vector_base<ncnn::Mat, std::allocator<ncnn::Mat>>::_Vector_impl" = type { %"struct.std::_Vector_base<ncnn::Mat, std::allocator<ncnn::Mat>>::_Vector_impl_data" }
%"struct.std::_Vector_base<ncnn::Mat, std::allocator<ncnn::Mat>>::_Vector_impl_data" = type { ptr, ptr, ptr }
%"class.ncnn::Mat" = type { ptr, ptr, i64, i32, ptr, i32, i32, i32, i32, i32, i64 }
%"class.ncnn::Option" = type { i8, i32, ptr, ptr, i32, i8, i8, i8, i8, i8, i8, i8, i8, i8, i8, i8, i8, i8, i8, i8, i8, i8, i8, i8, i8, i32, i8, i8, i8, i8, i8, i8, i8, i8, i8, i8, i8, i8 }

@2 = private unnamed_addr constant %struct.ident_t { i32 0, i32 2, i32 0, i32 22, ptr @0 }, align 8

; Function Attrs: alwaysinline mustprogress nounwind uwtable
define linkonce_odr hidden noundef ptr @_ZNK4ncnn3MatcvPKT_IfEEv(ptr noundef nonnull align 8 dereferenceable(72) %0) #4 comdat align 2 {
  %2 = alloca ptr, align 8
  store ptr %0, ptr %2, align 8, !tbaa !13
  %3 = load ptr, ptr %2, align 8
  %4 = getelementptr inbounds nuw %"class.ncnn::Mat", ptr %3, i32 0, i32 0
  %5 = load ptr, ptr %4, align 8, !tbaa !50
  ret ptr %5
}

; Function Attrs: alwaysinline mustprogress nounwind uwtable
define linkonce_odr hidden noundef ptr @_ZN4ncnn3MatcvPT_IfEEv(ptr noundef nonnull align 8 dereferenceable(72) %0) #4 comdat align 2 {
  %2 = alloca ptr, align 8
  store ptr %0, ptr %2, align 8, !tbaa !13
  %3 = load ptr, ptr %2, align 8
  %4 = getelementptr inbounds nuw %"class.ncnn::Mat", ptr %3, i32 0, i32 0
  %5 = load ptr, ptr %4, align 8, !tbaa !50
  ret ptr %5
}

; Function Attrs: mustprogress uwtable
define hidden noundef i32 @_ZNK4ncnn15RMSNorm_x86_fma15forward_inplaceERNS_3MatERKNS_6OptionE(ptr noundef nonnull align 8 dereferenceable(296) %0, ptr noundef nonnull align 8 dereferenceable(72) %1, ptr noundef nonnull align 8 dereferenceable(64) %2) unnamed_addr #2 align 2 {
  %4 = alloca ptr, align 8
  %5 = alloca ptr, align 8
  %6 = alloca ptr, align 8
  %7 = alloca i32, align 4
  %8 = alloca i32, align 4
  %9 = alloca i32, align 4
  %10 = alloca i32, align 4
  %11 = alloca i32, align 4
  %12 = alloca ptr, align 8
  %13 = call i32 @__kmpc_global_thread_num(ptr @2)
  store ptr %0, ptr %4, align 8, !tbaa !11
  store ptr %1, ptr %5, align 8, !tbaa !13
  store ptr %2, ptr %6, align 8, !tbaa !15
  %14 = load ptr, ptr %4, align 8
  call void @llvm.lifetime.start.p0(i64 4, ptr %7) #7
  %15 = load ptr, ptr %5, align 8, !tbaa !13
  %16 = getelementptr inbounds nuw %"class.ncnn::Mat", ptr %15, i32 0, i32 5
  %17 = load i32, ptr %16, align 8, !tbaa !17
  store i32 %17, ptr %7, align 4, !tbaa !23
  call void @llvm.lifetime.start.p0(i64 4, ptr %8) #7
  %18 = load ptr, ptr %5, align 8, !tbaa !13
  %19 = getelementptr inbounds nuw %"class.ncnn::Mat", ptr %18, i32 0, i32 6
  %20 = load i32, ptr %19, align 4, !tbaa !24
  store i32 %20, ptr %8, align 4, !tbaa !23
  call void @llvm.lifetime.start.p0(i64 4, ptr %9) #7
  %21 = load ptr, ptr %5, align 8, !tbaa !13
  %22 = getelementptr inbounds nuw %"class.ncnn::Mat", ptr %21, i32 0, i32 7
  %23 = load i32, ptr %22, align 8, !tbaa !25
  store i32 %23, ptr %9, align 4, !tbaa !23
  call void @llvm.lifetime.start.p0(i64 4, ptr %10) #7
  %24 = load ptr, ptr %5, align 8, !tbaa !13
  %25 = getelementptr inbounds nuw %"class.ncnn::Mat", ptr %24, i32 0, i32 9
  %26 = load i32, ptr %25, align 8, !tbaa !26
  store i32 %26, ptr %10, align 4, !tbaa !23
  call void @llvm.lifetime.start.p0(i64 4, ptr %11) #7
  %27 = load ptr, ptr %5, align 8, !tbaa !13
  %28 = getelementptr inbounds nuw %"class.ncnn::Mat", ptr %27, i32 0, i32 3
  %29 = load i32, ptr %28, align 8, !tbaa !27
  store i32 %29, ptr %11, align 4, !tbaa !23
  %30 = load i32, ptr %7, align 4, !tbaa !23
  %31 = icmp eq i32 %30, 1
  br i1 %31, label %32, label %43

32:                                               ; preds = %3
  call void @llvm.lifetime.start.p0(i64 8, ptr %12) #7
  %33 = load ptr, ptr %5, align 8, !tbaa !13
  %34 = call noundef ptr @_ZN4ncnn3MatcvPT_IfEEv(ptr noundef nonnull align 8 dereferenceable(72) %33)
  store ptr %34, ptr %12, align 8, !tbaa !28
  %35 = load ptr, ptr %12, align 8, !tbaa !28
  %36 = getelementptr inbounds nuw %"class.ncnn::RMSNorm", ptr %14, i32 0, i32 4
  %37 = call noundef ptr @_ZNK4ncnn3MatcvPKT_IfEEv(ptr noundef nonnull align 8 dereferenceable(72) %36)
  %38 = getelementptr inbounds nuw %"class.ncnn::RMSNorm", ptr %14, i32 0, i32 2
  %39 = load float, ptr %38, align 4, !tbaa !30
  %40 = load i32, ptr %8, align 4, !tbaa !23
  %41 = load i32, ptr %11, align 4, !tbaa !23
  %42 = mul nsw i32 %40, %41
  call void @_ZN4ncnnL7rmsnormEPfPKffii(ptr noundef %35, ptr noundef %37, float noundef nofpclass(nan inf) %39, i32 noundef %42, i32 noundef 1)
  call void @llvm.lifetime.end.p0(i64 8, ptr %12) #7
  br label %43

43:                                               ; preds = %32, %3
  %44 = load i32, ptr %7, align 4, !tbaa !23
  %45 = icmp eq i32 %44, 2
  br i1 %45, label %46, label %51

46:                                               ; preds = %43
  %47 = load ptr, ptr %6, align 8, !tbaa !15
  %48 = getelementptr inbounds nuw %"class.ncnn::Option", ptr %47, i32 0, i32 1
  %49 = load i32, ptr %48, align 4, !tbaa !46
  call void @__kmpc_push_num_threads(ptr @2, i32 %13, i32 %49)
  %50 = load ptr, ptr %5, align 8, !tbaa !13
  call void (ptr, i32, ptr, ...) @__kmpc_fork_call(ptr @2, i32 5, ptr @_ZNK4ncnn15RMSNorm_x86_fma15forward_inplaceERNS_3MatERKNS_6OptionE.omp_outlined, ptr %9, ptr %50, ptr %14, ptr %8, ptr %11)
  br label %51

51:                                               ; preds = %46, %43
  %52 = load i32, ptr %7, align 4, !tbaa !23
  %53 = icmp eq i32 %52, 3
  br i1 %53, label %54, label %70

54:                                               ; preds = %51
  %55 = getelementptr inbounds nuw %"class.ncnn::RMSNorm", ptr %14, i32 0, i32 1
  %56 = load i32, ptr %55, align 8, !tbaa !48
  %57 = load i32, ptr %8, align 4, !tbaa !23
  %58 = icmp eq i32 %56, %57
  br i1 %58, label %59, label %64

59:                                               ; preds = %54
  %60 = load ptr, ptr %6, align 8, !tbaa !15
  %61 = getelementptr inbounds nuw %"class.ncnn::Option", ptr %60, i32 0, i32 1
  %62 = load i32, ptr %61, align 4, !tbaa !46
  call void @__kmpc_push_num_threads(ptr @2, i32 %13, i32 %62)
  %63 = load ptr, ptr %5, align 8, !tbaa !13
  call void (ptr, i32, ptr, ...) @__kmpc_fork_call(ptr @2, i32 6, ptr @_ZNK4ncnn15RMSNorm_x86_fma15forward_inplaceERNS_3MatERKNS_6OptionE.omp_outlined.1, ptr %10, ptr %9, ptr %63, ptr %14, ptr %8, ptr %11)
  br label %69

64:                                               ; preds = %54
  %65 = load ptr, ptr %6, align 8, !tbaa !15
  %66 = getelementptr inbounds nuw %"class.ncnn::Option", ptr %65, i32 0, i32 1
  %67 = load i32, ptr %66, align 4, !tbaa !46
  call void @__kmpc_push_num_threads(ptr @2, i32 %13, i32 %67)
  %68 = load ptr, ptr %5, align 8, !tbaa !13
  call void (ptr, i32, ptr, ...) @__kmpc_fork_call(ptr @2, i32 6, ptr @_ZNK4ncnn15RMSNorm_x86_fma15forward_inplaceERNS_3MatERKNS_6OptionE.omp_outlined.2, ptr %10, ptr %68, ptr %14, ptr %8, ptr %9, ptr %11)
  br label %69

69:                                               ; preds = %64, %59
  br label %70

70:                                               ; preds = %69, %51
  call void @llvm.lifetime.end.p0(i64 4, ptr %11) #7
  call void @llvm.lifetime.end.p0(i64 4, ptr %10) #7
  call void @llvm.lifetime.end.p0(i64 4, ptr %9) #7
  call void @llvm.lifetime.end.p0(i64 4, ptr %8) #7
  call void @llvm.lifetime.end.p0(i64 4, ptr %7) #7
  ret i32 0
}