; Function Attrs: mustprogress nounwind uwtable
define hidden noundef i32 @_ZNK4ncnn15RMSNorm_x86_fma15forward_inplaceERNS_3MatERKNS_6OptionE(ptr noundef nonnull align 8 dereferenceable(296) %0, ptr noundef nonnull align 8 dereferenceable(72) %1, ptr noundef nonnull readonly align 8 captures(none) dereferenceable(64) %2) unnamed_addr #2 align 2 {
  %4 = alloca i32, align 4
  %5 = alloca i32, align 4
  %6 = alloca i32, align 4
  %7 = alloca i32, align 4
  %8 = tail call i32 @__kmpc_global_thread_num(ptr nonnull @2)
  %9 = getelementptr inbounds nuw i8, ptr %1, i64 40
  %10 = load i32, ptr %9, align 8, !tbaa !18
  call void @llvm.lifetime.start.p0(i64 4, ptr nonnull %4) #7
  %11 = getelementptr inbounds nuw i8, ptr %1, i64 44
  %12 = load i32, ptr %11, align 4, !tbaa !19
  store i32 %12, ptr %4, align 4, !tbaa !20
  call void @llvm.lifetime.start.p0(i64 4, ptr nonnull %5) #7
  %13 = getelementptr inbounds nuw i8, ptr %1, i64 48
  %14 = load i32, ptr %13, align 8, !tbaa !21
  store i32 %14, ptr %5, align 4, !tbaa !20
  call void @llvm.lifetime.start.p0(i64 4, ptr nonnull %6) #7
  %15 = getelementptr inbounds nuw i8, ptr %1, i64 56
  %16 = load i32, ptr %15, align 8, !tbaa !22
  store i32 %16, ptr %6, align 4, !tbaa !20
  call void @llvm.lifetime.start.p0(i64 4, ptr nonnull %7) #7
  %17 = getelementptr inbounds nuw i8, ptr %1, i64 24
  %18 = load i32, ptr %17, align 8, !tbaa !23
  store i32 %18, ptr %7, align 4, !tbaa !20
  switch i32 %10, label %37 [
    i32 1, label %19
    i32 2, label %26
    i32 3, label %29
  ]

19:                                               ; preds = %3
  %20 = load ptr, ptr %1, align 8, !tbaa !16
  %21 = getelementptr inbounds nuw i8, ptr %0, i64 224
  %22 = load ptr, ptr %21, align 8, !tbaa !16
  %23 = getelementptr inbounds nuw i8, ptr %0, i64 212
  %24 = load float, ptr %23, align 4, !tbaa !24
  %25 = mul nsw i32 %18, %12
  tail call fastcc void @_ZN4ncnnL7rmsnormEPfPKffii(ptr noundef %20, ptr noundef %22, float noundef nofpclass(nan inf) %24, i32 noundef %25, i32 noundef 1)
  br label %37

26:                                               ; preds = %3
  %27 = getelementptr inbounds nuw i8, ptr %2, i64 4
  %28 = load i32, ptr %27, align 4, !tbaa !41
  tail call void @__kmpc_push_num_threads(ptr nonnull @2, i32 %8, i32 %28)
  call void (ptr, i32, ptr, ...) @__kmpc_fork_call(ptr nonnull @2, i32 5, ptr nonnull @_ZNK4ncnn15RMSNorm_x86_fma15forward_inplaceERNS_3MatERKNS_6OptionE.omp_outlined, ptr nonnull %5, ptr nonnull %1, ptr nonnull %0, ptr nonnull %4, ptr nonnull %7)
  br label %37

29:                                               ; preds = %3
  %30 = getelementptr inbounds nuw i8, ptr %0, i64 208
  %31 = load i32, ptr %30, align 8, !tbaa !43
  %32 = icmp eq i32 %31, %12
  %33 = getelementptr inbounds nuw i8, ptr %2, i64 4
  %34 = load i32, ptr %33, align 4, !tbaa !41
  tail call void @__kmpc_push_num_threads(ptr nonnull @2, i32 %8, i32 %34)
  br i1 %32, label %35, label %36

35:                                               ; preds = %29
  call void (ptr, i32, ptr, ...) @__kmpc_fork_call(ptr nonnull @2, i32 6, ptr nonnull @_ZNK4ncnn15RMSNorm_x86_fma15forward_inplaceERNS_3MatERKNS_6OptionE.omp_outlined.1, ptr nonnull %6, ptr nonnull %5, ptr nonnull %1, ptr nonnull %0, ptr nonnull %4, ptr nonnull %7)
  br label %37

36:                                               ; preds = %29
  call void (ptr, i32, ptr, ...) @__kmpc_fork_call(ptr nonnull @2, i32 6, ptr nonnull @_ZNK4ncnn15RMSNorm_x86_fma15forward_inplaceERNS_3MatERKNS_6OptionE.omp_outlined.2, ptr nonnull %6, ptr nonnull %1, ptr nonnull %0, ptr nonnull %4, ptr nonnull %5, ptr nonnull %7)
  br label %37

37:                                               ; preds = %26, %19, %3, %35, %36
  call void @llvm.lifetime.end.p0(i64 4, ptr nonnull %7) #7
  call void @llvm.lifetime.end.p0(i64 4, ptr nonnull %6) #7
  call void @llvm.lifetime.end.p0(i64 4, ptr nonnull %5) #7
  call void @llvm.lifetime.end.p0(i64 4, ptr nonnull %4) #7
  ret i32 0
}